(dp1
S'args'
p2
S"(S'FTPConnection'\np0\ntp1\n."
p3
sS'methodname'
p4
S'get_files'
p5
sS'packet_num'
p6
I0
sS'returnval'
p7
S'(lp0\n.'
p8
sS'hash'
p9
S'519142b277f016d906709eb19ccad3de89c133f1'
p10
sS'stack'
p11
S'get_files util.py get_stack facade.py cache patch.py patch_with facade.py cache patch.py patch_with __init__.py get_report_files report_test.py __get_and_test report_test.py test_line_item_report patch.py patched_test '
p12
s.