(dp1
S'args'
p2
S"(S'FTPConnection'\np0\ntp1\n."
p3
sS'methodname'
p4
S'get_files'
p5
sS'packet_num'
p6
I0
sS'returnval'
p7
S'(lp0\n.'
p8
sS'hash'
p9
S'81a0b3076458c099344ede819942ab4bc31a3b72'
p10
sS'stack'
p11
S'get_files util.py get_stack facade.py cache patch.py patch_with ftp_test.py __get_and_test ftp_test.py test_get_files patch.py patched_test '
p12
s.