(dp1
S'args'
p2
S"(S'FTPConnection'\np0\ntp1\n."
p3
sS'methodname'
p4
S'_establish_connection'
p5
sS'packet_num'
p6
I0
sS'returnval'
p7
S'N.'
p8
sS'hash'
p9
S'b87365f27c718cffb49f03ed5509312f70b8ba76'
p10
sS'stack'
p11
S'_establish_connection util.py get_stack facade.py cache patch.py patch_with __init__.py __enter__ ftp_test.py __get_and_test ftp_test.py test_get_files patch.py patched_test '
p12
s.