(dp1
S'args'
p2
S"(S'FTPConnection'\np0\ntp1\n."
p3
sS'methodname'
p4
S'patch_with'
p5
sS'packet_num'
p6
I0
sS'returnval'
p7
S'(lp0\n.'
p8
sS'hash'
p9
S'b959d5e891c60cdd23eda3f04f8a0a4b2a838832'
p10
sS'stack'
p11
S'patch_with util.py get_stack facade.py cache patch.py patch_with __init__.py get_report_files report_test.py __get_and_test report_test.py test_line_item_report patch.py patched_test '
p12
s.