(dp1
S'args'
p2
S"(S'FTPConnection'\np0\ntp1\n."
p3
sS'methodname'
p4
S'_establish_connection'
p5
sS'packet_num'
p6
I0
sS'returnval'
p7
S'N.'
p8
sS'hash'
p9
S'e646c839d5a47e35fcdd549f3447428417f8e5d7'
p10
sS'stack'
p11
S'_establish_connection util.py get_stack facade.py cache patch.py patch_with facade.py cache patch.py patch_with __init__.py __enter__ __init__.py get_report_files report_test.py __get_and_test report_test.py test_line_item_report patch.py patched_test '
p12
s.