(dp1
S'args'
p2
S"(S'FTPConnection'\np0\ntp1\n."
p3
sS'methodname'
p4
S'_close_connection'
p5
sS'packet_num'
p6
I0
sS'returnval'
p7
S'N.'
p8
sS'hash'
p9
S'f5ce83c67d9adf64f7ae9ed7f44937b222c12592'
p10
sS'stack'
p11
S'_close_connection util.py get_stack facade.py cache patch.py patch_with __init__.py __exit__ ftp_test.py __get_and_test ftp_test.py test_get_files patch.py patched_test '
p12
s.